target datalayout = "e-m:e-p270:32:32-p271:32:32-p272:64:64-i64:64-i128:128-f80:128-n8:16:32:64-S128"
target triple = "x86_64-pc-linux-gnu"

@_ZN19TemplateInterpreter19InterpreterCodeSizeE = external global i32, align 4
@CodeEntryAlignment = external global i64, align 8
@.str = private unnamed_addr constant [12 x i8] c"Interpreter\00", align 1
@_ZN19AbstractInterpreter5_codeE = external global ptr, align 8

; Function Attrs: mustprogress nounwind uwtable
define linkonce_odr hidden void @_ZN13StubInterfaceC2Ev(ptr noundef nonnull align 8 dereferenceable(8) %0) unnamed_addr #1 comdat align 2 {
  %2 = alloca ptr, align 8
  store ptr %0, ptr %2, align 8
  %3 = load ptr, ptr %2, align 8
  store ptr getelementptr inbounds inrange(-16, 72) ({ [11 x ptr] }, ptr @_ZTV13StubInterface, i32 0, i32 0, i32 2), ptr %3, align 8
  ret void
}

; Function Attrs: mustprogress nounwind uwtable
define linkonce_odr hidden void @_ZN27InterpreterCodeletInterfaceC2Ev(ptr noundef nonnull align 8 dereferenceable(8) %0) unnamed_addr #1 comdat align 2 {
  %2 = alloca ptr, align 8
  store ptr %0, ptr %2, align 8
  %3 = load ptr, ptr %2, align 8
  call void @_ZN13StubInterfaceC2Ev(ptr noundef nonnull align 8 dereferenceable(8) %3) #8
  store ptr getelementptr inbounds inrange(-16, 72) ({ [11 x ptr] }, ptr @_ZTV27InterpreterCodeletInterface, i32 0, i32 0, i32 2), ptr %3, align 8
  ret void
}

; Function Attrs: mustprogress nounwind uwtable
define linkonce_odr hidden noundef i32 @_Z12checked_castIilET_T0_(i64 noundef %0) #1 comdat {
  %2 = alloca i64, align 8
  %3 = alloca i32, align 4
  store i64 %0, ptr %2, align 8
  %4 = load i64, ptr %2, align 8
  %5 = trunc i64 %4 to i32
  store i32 %5, ptr %3, align 4
  %6 = load i32, ptr %3, align 4
  ret i32 %6
}

; Function Attrs: mustprogress nounwind uwtable
define hidden void @_ZN19TemplateInterpreter15initialize_stubEv() #1 align 2 {
  %1 = alloca i64, align 8
  %2 = alloca i8, align 1
  %3 = alloca i64, align 8
  %4 = alloca i8, align 1
  %5 = alloca i64, align 8
  %6 = alloca i64, align 8
  %7 = alloca i32, align 4
  %8 = alloca i32, align 4
  %9 = alloca i32, align 4
  %10 = load i32, ptr @_ZN19TemplateInterpreter19InterpreterCodeSizeE, align 4
  store i32 %10, ptr %7, align 4
  store i32 280, ptr %8, align 4
  %11 = load i32, ptr %8, align 4
  %12 = sext i32 %11 to i64
  %13 = load i64, ptr @CodeEntryAlignment, align 8
  %14 = add nsw i64 8, %13
  %15 = mul nsw i64 %12, %14
  %16 = call noundef i32 @_Z12checked_castIilET_T0_(i64 noundef %15)
  store i32 %16, ptr %9, align 4
  store i64 48, ptr %5, align 8
  %17 = load i64, ptr %5, align 8
  store i64 %17, ptr %3, align 8
  store i8 4, ptr %4, align 1
  %18 = load i64, ptr %3, align 8
  %19 = load i8, ptr %4, align 1
  %20 = call noundef ptr @_Z12AllocateHeapm8MEMFLAGSN17AllocFailStrategy13AllocFailEnumE(i64 noundef %18, i8 noundef zeroext %19, i32 noundef 0) #8
  store i64 8, ptr %6, align 8
  %21 = load i64, ptr %6, align 8
  store i64 %21, ptr %1, align 8
  store i8 4, ptr %2, align 1
  %22 = load i64, ptr %1, align 8
  %23 = load i8, ptr %2, align 1
  %24 = call noundef ptr @_Z12AllocateHeapm8MEMFLAGSN17AllocFailStrategy13AllocFailEnumE(i64 noundef %22, i8 noundef zeroext %23, i32 noundef 0) #8
  call void @_ZN27InterpreterCodeletInterfaceC2Ev(ptr noundef nonnull align 8 dereferenceable(8) %24) #8
  %25 = load i32, ptr %7, align 4
  %26 = load i32, ptr %9, align 4
  %27 = add nsw i32 %25, %26
  call void @_ZN9StubQueueC1EP13StubInterfaceiP5MutexPKc(ptr noundef nonnull align 8 dereferenceable(48) %20, ptr noundef %24, i32 noundef %27, ptr noundef null, ptr noundef @.str)
  store ptr %20, ptr @_ZN19AbstractInterpreter5_codeE, align 8
  ret void
}